; Function Attrs: mustprogress uwtable
define internal fastcc void @_ZN2cvL7argsortERKNS_11_InputArrayEb(ptr dead_on_unwind noalias writable align 8 %0, ptr noundef nonnull align 8 dereferenceable(24) %1) unnamed_addr #3 personality ptr @__gxx_personality_v0 {
  %3 = alloca %"class.cv::Mat", align 8
  %4 = alloca %"class.std::__cxx11::basic_string", align 8
  %5 = alloca %"class.std::allocator", align 1
  %6 = alloca %"class.cv::_InputArray", align 8
  %7 = alloca %"class.cv::Mat", align 8
  %8 = alloca %"class.cv::_OutputArray", align 8
  %9 = tail call noundef i32 @_ZNK2cv11_InputArray4kindEv(ptr noundef nonnull align 8 dereferenceable(24) %1), !noalias !107
  %10 = icmp eq i32 %9, 65536
  br i1 %10, label %11, label %14

11:                                               ; preds = %2
  %12 = getelementptr inbounds i8, ptr %1, i64 8
  %13 = load ptr, ptr %12, align 8, !noalias !107
  call void @_ZN2cv3MatC1ERKS0_(ptr noundef nonnull align 8 dereferenceable(96) %3, ptr noundef nonnull align 8 dereferenceable(96) %13)
  br label %_ZNK2cv11_InputArray6getMatEi.exit

14:                                               ; preds = %2
  call void @_ZNK2cv11_InputArray7getMat_Ei(ptr dead_on_unwind nonnull writable sret(%"class.cv::Mat") align 8 %3, ptr noundef nonnull align 8 dereferenceable(24) %1, i32 noundef -1)
  br label %_ZNK2cv11_InputArray6getMatEi.exit

_ZNK2cv11_InputArray6getMatEi.exit:               ; preds = %11, %14
  %15 = getelementptr inbounds i8, ptr %3, i64 8
  %16 = load i32, ptr %15, align 8
  %17 = icmp ne i32 %16, 1
  %18 = getelementptr inbounds i8, ptr %3, i64 12
  %19 = load i32, ptr %18, align 4
  %20 = icmp ne i32 %19, 1
  %or.cond = select i1 %17, i1 %20, i1 false
  br i1 %or.cond, label %21, label %29

21:                                               ; preds = %_ZNK2cv11_InputArray6getMatEi.exit
  call void @_ZNSaIcEC1Ev(ptr noundef nonnull align 1 dereferenceable(1) %5) #17
  invoke void @_ZNSt7__cxx1112basic_stringIcSt11char_traitsIcESaIcEEC1EPKcRKS3_(ptr noundef nonnull align 8 dereferenceable(32) %4, ptr noundef nonnull @.str.16, ptr noundef nonnull align 1 dereferenceable(1) %5)
          to label %22 unwind label %24

22:                                               ; preds = %21
  invoke void @_ZN2cv5errorEiRKNSt7__cxx1112basic_stringIcSt11char_traitsIcESaIcEEEPKcS9_i(i32 noundef -5, ptr noundef nonnull align 8 dereferenceable(32) %4, ptr noundef nonnull @__func__._ZN2cvL7argsortERKNS_11_InputArrayEb, ptr noundef nonnull @.str.1, i32 noundef 67) #18
          to label %23 unwind label %26

23:                                               ; preds = %22
  unreachable

24:                                               ; preds = %21
  %25 = landingpad { ptr, i32 }
          cleanup
  br label %28

26:                                               ; preds = %22
  %27 = landingpad { ptr, i32 }
          cleanup
  call void @_ZNSt7__cxx1112basic_stringIcSt11char_traitsIcESaIcEED1Ev(ptr noundef nonnull align 8 dereferenceable(32) %4) #17
  br label %28

28:                                               ; preds = %26, %24
  %.pn15 = phi { ptr, i32 } [ %27, %26 ], [ %25, %24 ]
  call void @_ZNSaIcED1Ev(ptr noundef nonnull align 1 dereferenceable(1) %5) #17
  br label %42

29:                                               ; preds = %_ZNK2cv11_InputArray6getMatEi.exit
  call void @_ZN2cv3MatC1Ev(ptr noundef nonnull align 8 dereferenceable(96) %0) #17
  invoke void @_ZNK2cv3Mat7reshapeEii(ptr dead_on_unwind nonnull writable sret(%"class.cv::Mat") align 8 %7, ptr noundef nonnull align 8 dereferenceable(96) %3, i32 noundef 1, i32 noundef 1)
          to label %30 unwind label %37

30:                                               ; preds = %29
  %31 = getelementptr inbounds i8, ptr %6, i64 16
  store i32 0, ptr %31, align 8
  %32 = getelementptr inbounds i8, ptr %6, i64 20
  store i32 0, ptr %32, align 4
  store i32 16842752, ptr %6, align 8
  %33 = getelementptr inbounds i8, ptr %6, i64 8
  store ptr %7, ptr %33, align 8
  %34 = getelementptr inbounds i8, ptr %8, i64 8
  %35 = getelementptr inbounds i8, ptr %8, i64 16
  store i64 0, ptr %35, align 8
  store i32 33619968, ptr %8, align 8
  store ptr %0, ptr %34, align 8
  invoke void @_ZN2cv7sortIdxERKNS_11_InputArrayERKNS_12_OutputArrayEi(ptr noundef nonnull align 8 dereferenceable(24) %6, ptr noundef nonnull align 8 dereferenceable(24) %8, i32 noundef 0)
          to label %36 unwind label %39

36:                                               ; preds = %30
  call void @_ZN2cv3MatD1Ev(ptr noundef nonnull align 8 dereferenceable(96) %7) #17
  call void @_ZN2cv3MatD1Ev(ptr noundef nonnull align 8 dereferenceable(96) %3) #17
  ret void

37:                                               ; preds = %29
  %38 = landingpad { ptr, i32 }
          cleanup
  br label %41

39:                                               ; preds = %30
  %40 = landingpad { ptr, i32 }
          cleanup
  call void @_ZN2cv3MatD1Ev(ptr noundef nonnull align 8 dereferenceable(96) %7) #17
  br label %41

41:                                               ; preds = %39, %37
  %.pn.pn.pn = phi { ptr, i32 } [ %40, %39 ], [ %38, %37 ]
  call void @_ZN2cv3MatD1Ev(ptr noundef nonnull align 8 dereferenceable(96) %0) #17
  br label %42

42:                                               ; preds = %41, %28
  %.pn15.pn = phi { ptr, i32 } [ %.pn15, %28 ], [ %.pn.pn.pn, %41 ]
  call void @_ZN2cv3MatD1Ev(ptr noundef nonnull align 8 dereferenceable(96) %3) #17
  resume { ptr, i32 } %.pn15.pn
}